target datalayout = "e-m:e-p270:32:32-p271:32:32-p272:64:64-i64:64-i128:128-f80:128-n8:16:32:64-S128"
target triple = "x86_64-pc-linux-gnu"

%"class.icu_77::UMutex" = type { [40 x i8], %"struct.std::atomic.1", ptr }
%"struct.std::atomic.1" = type { %"struct.std::__atomic_base.2" }
%"struct.std::__atomic_base.2" = type { ptr }
%"class.icu_77::UObject" = type { ptr }
%"class.icu_77::DateFormatSymbols" = type { %"class.icu_77::UObject", ptr, i32, ptr, i32, ptr, i32, ptr, i32, ptr, i32, ptr, i32, ptr, i32, ptr, i32, ptr, i32, ptr, i32, ptr, i32, ptr, i32, ptr, i32, ptr, i32, ptr, i32, ptr, i32, ptr, i32, ptr, i32, ptr, i32, %"class.icu_77::UnicodeString", ptr, i32, ptr, i32, ptr, i32, ptr, i32, ptr, i32, ptr, i32, ptr, i32, ptr, i32, ptr, i32, ptr, ptr, i32, i32, %"class.icu_77::Locale", %"class.icu_77::UnicodeString", [14 x [2 x i8]], ptr, i32, ptr, i32, ptr, i32, ptr, i32, ptr, i32, ptr, i32, ptr, ptr }
%"class.icu_77::Locale" = type <{ %"class.icu_77::UObject", [12 x i8], [6 x i8], [4 x i8], [2 x i8], i32, [4 x i8], ptr, [157 x i8], [3 x i8], ptr, i8, [7 x i8] }>
%"class.icu_77::UnicodeString" = type { %"class.icu_77::Replaceable", %"union.icu_77::UnicodeString::StackBufferOrFields" }
%"class.icu_77::Replaceable" = type { %"class.icu_77::UObject" }
%"union.icu_77::UnicodeString::StackBufferOrFields" = type { %struct.anon.0, [32 x i8] }
%struct.anon.0 = type { i16, i32, i32, ptr }

@_ZZNK6icu_7717DateFormatSymbols14getZoneStringsERiS1_E4LOCK = internal global %"class.icu_77::UMutex" zeroinitializer, align 8

; Function Attrs: mustprogress uwtable
define noundef ptr @_ZNK6icu_7717DateFormatSymbols14getZoneStringsERiS1_(ptr noundef nonnull align 8 dereferenceable(976) %0, ptr noundef nonnull align 4 dereferenceable(4) %1, ptr noundef nonnull align 4 dereferenceable(4) %2) #1 align 2 {
  %4 = alloca ptr, align 8
  %5 = alloca ptr, align 8
  %6 = alloca ptr, align 8
  %7 = alloca ptr, align 8
  store ptr %0, ptr %4, align 8, !tbaa !31
  store ptr %1, ptr %5, align 8, !tbaa !20
  store ptr %2, ptr %6, align 8, !tbaa !20
  %8 = load ptr, ptr %4, align 8
  call void @llvm.lifetime.start.p0(i64 8, ptr %7) #14
  store ptr null, ptr %7, align 8, !tbaa !133
  call void @umtx_lock_77(ptr noundef @_ZZNK6icu_7717DateFormatSymbols14getZoneStringsERiS1_E4LOCK)
  %9 = getelementptr inbounds nuw %"class.icu_77::DateFormatSymbols", ptr %8, i32 0, i32 58
  %10 = load ptr, ptr %9, align 8, !tbaa !110
  %11 = icmp eq ptr %10, null
  br i1 %11, label %12, label %20

12:                                               ; preds = %3
  %13 = getelementptr inbounds nuw %"class.icu_77::DateFormatSymbols", ptr %8, i32 0, i32 59
  %14 = load ptr, ptr %13, align 8, !tbaa !111
  %15 = icmp eq ptr %14, null
  br i1 %15, label %16, label %17

16:                                               ; preds = %12
  call void @_ZN6icu_7717DateFormatSymbols20initZoneStringsArrayEv(ptr noundef nonnull align 8 dereferenceable(976) %8)
  br label %17

17:                                               ; preds = %16, %12
  %18 = getelementptr inbounds nuw %"class.icu_77::DateFormatSymbols", ptr %8, i32 0, i32 59
  %19 = load ptr, ptr %18, align 8, !tbaa !111
  store ptr %19, ptr %7, align 8, !tbaa !133
  br label %23

20:                                               ; preds = %3
  %21 = getelementptr inbounds nuw %"class.icu_77::DateFormatSymbols", ptr %8, i32 0, i32 58
  %22 = load ptr, ptr %21, align 8, !tbaa !110
  store ptr %22, ptr %7, align 8, !tbaa !133
  br label %23

23:                                               ; preds = %20, %17
  %24 = getelementptr inbounds nuw %"class.icu_77::DateFormatSymbols", ptr %8, i32 0, i32 60
  %25 = load i32, ptr %24, align 8, !tbaa !108
  %26 = load ptr, ptr %5, align 8, !tbaa !20
  store i32 %25, ptr %26, align 4, !tbaa !14
  %27 = getelementptr inbounds nuw %"class.icu_77::DateFormatSymbols", ptr %8, i32 0, i32 61
  %28 = load i32, ptr %27, align 4, !tbaa !109
  %29 = load ptr, ptr %6, align 8, !tbaa !20
  store i32 %28, ptr %29, align 4, !tbaa !14
  call void @umtx_unlock_77(ptr noundef @_ZZNK6icu_7717DateFormatSymbols14getZoneStringsERiS1_E4LOCK)
  %30 = load ptr, ptr %7, align 8, !tbaa !133
  call void @llvm.lifetime.end.p0(i64 8, ptr %7) #14
  ret ptr %30
}