; Function Attrs: mustprogress uwtable
define noundef ptr @_ZNK6icu_7717DateFormatSymbols14getZoneStringsERiS1_(ptr noundef nonnull align 8 dereferenceable(976) %0, ptr noundef nonnull writeonly align 4 captures(none) dereferenceable(4) initializes((0, 4)) %1, ptr noundef nonnull writeonly align 4 captures(none) dereferenceable(4) initializes((0, 4)) %2) local_unnamed_addr #1 align 2 {
  tail call void @umtx_lock_77(ptr noundef nonnull @_ZZNK6icu_7717DateFormatSymbols14getZoneStringsERiS1_E4LOCK)
  %4 = getelementptr inbounds nuw i8, ptr %0, i64 520
  %5 = load ptr, ptr %4, align 8, !tbaa !147
  %6 = icmp eq ptr %5, null
  br i1 %6, label %7, label %12

7:                                                ; preds = %3
  %8 = getelementptr inbounds nuw i8, ptr %0, i64 528
  %9 = load ptr, ptr %8, align 8, !tbaa !150
  %10 = icmp eq ptr %9, null
  br i1 %10, label %11, label %12

11:                                               ; preds = %7
  tail call void @_ZN6icu_7717DateFormatSymbols20initZoneStringsArrayEv(ptr noundef nonnull align 8 dereferenceable(976) %0)
  %.pre = load ptr, ptr %8, align 8, !tbaa !150
  br label %12

12:                                               ; preds = %7, %11, %3
  %.0 = phi ptr [ %5, %3 ], [ %.pre, %11 ], [ %9, %7 ]
  %13 = getelementptr inbounds nuw i8, ptr %0, i64 536
  %14 = load i32, ptr %13, align 8, !tbaa !149
  store i32 %14, ptr %1, align 4, !tbaa !12
  %15 = getelementptr inbounds nuw i8, ptr %0, i64 540
  %16 = load i32, ptr %15, align 4, !tbaa !148
  store i32 %16, ptr %2, align 4, !tbaa !12
  tail call void @umtx_unlock_77(ptr noundef nonnull @_ZZNK6icu_7717DateFormatSymbols14getZoneStringsERiS1_E4LOCK)
  ret ptr %.0
}